{
  "main_library": {
    "exported_symbols": [
      {
        "data": {
          "global": [
            "_media_kit_native_event_loopVersionNumber",
            "_media_kit_native_event_loopVersionString"
          ],
          "objc_class": [
            "PodsDummy_media_kit_native_event_loop"
          ]
        },
        "text": {
          "global": [
            "__ZN24MediaKitEventLoopHandler7DisposeExb",
            "_signal_catch_init",
            "__ZN24MediaKitEventLoopHandler12IsRegisteredEx",
            "__ZN24MediaKitEventLoopHandlerD1Ev",
            "_env_buf_get",
            "_signal_info",
            "_env_buf_push",
            "__ZN24MediaKitEventLoopHandler10InitializeEv",
            "__ZN24MediaKitEventLoopHandlerC2Ev",
            "_signal_name",
            "__ZN24MediaKitEventLoopHandler8RegisterExPvx",
            "__ZN24MediaKitEventLoopHandler11GetInstanceEv",
            "_env_buf_cur",
            "_MediaKitEventLoopHandlerNotify",
            "_env_buf_pop",
            "__ZN24MediaKitEventLoopHandlerC1Ev",
            "_MediaKitEventLoopHandlerRegister",
            "__ZN24MediaKitEventLoopHandler6NotifyEx",
            "_env_buf_alloc",
            "__ZN24MediaKitEventLoopHandlerD2Ev",
            "_MediaKitEventLoopHandlerInitialize",
            "_env_buf_free",
            "_MediaKitEventLoopHandlerDispose"
          ],
          "weak": [
            "__ZNSt3__112__hash_tableINS_17__hash_value_typeIP10mpv_handleNS_10unique_ptrINS_6threadENS_14default_deleteIS5_EEEEEENS_22__unordered_map_hasherIS3_S9_NS_4hashIS3_EENS_8equal_toIS3_EELb1EEENS_21__unordered_map_equalIS3_S9_SE_SC_Lb1EEENS_9allocatorIS9_EEE4findIS3_EENS_15__hash_iteratorIPNS_11__hash_nodeIS9_PvEEEERKT_",
            "__ZNSt3__112__hash_tableINS_17__hash_value_typeIP10mpv_handleNS_10unique_ptrINS_6threadENS_14default_deleteIS5_EEEEEENS_22__unordered_map_hasherIS3_S9_NS_4hashIS3_EENS_8equal_toIS3_EELb1EEENS_21__unordered_map_equalIS3_S9_SE_SC_Lb1EEENS_9allocatorIS9_EEE21__construct_node_hashINS_4pairIS3_S8_EEJEEENS4_INS_11__hash_nodeIS9_PvEENS_22__hash_node_destructorINSI_ISQ_EEEEEEmOT_DpOT0_",
            "__ZNSt3__112__hash_tableINS_17__hash_value_typeIP10mpv_handleNS_10unique_ptrINS_18condition_variableENS_14default_deleteIS5_EEEEEENS_22__unordered_map_hasherIS3_S9_NS_4hashIS3_EENS_8equal_toIS3_EELb1EEENS_21__unordered_map_equalIS3_S9_SE_SC_Lb1EEENS_9allocatorIS9_EEE21__construct_node_hashINS_4pairIS3_S8_EEJEEENS4_INS_11__hash_nodeIS9_PvEENS_22__hash_node_destructorINSI_ISQ_EEEEEEmOT_DpOT0_",
            "__ZNSt3__112__hash_tableINS_17__hash_value_typeIP10mpv_handleNS_10unique_ptrINS_6threadENS_14default_deleteIS5_EEEEEENS_22__unordered_map_hasherIS3_S9_NS_4hashIS3_EENS_8equal_toIS3_EELb1EEENS_21__unordered_map_equalIS3_S9_SE_SC_Lb1EEENS_9allocatorIS9_EEE25__emplace_unique_key_argsIS3_JNS_4pairIS3_S8_EEEEENSM_INS_15__hash_iteratorIPNS_11__hash_nodeIS9_PvEEEEbEERKT_DpOT0_",
            "__ZNSt3__112__hash_tableINS_17__hash_value_typeIP10mpv_handleNS_10unique_ptrINS_5mutexENS_14default_deleteIS5_EEEEEENS_22__unordered_map_hasherIS3_S9_NS_4hashIS3_EENS_8equal_toIS3_EELb1EEENS_21__unordered_map_equalIS3_S9_SE_SC_Lb1EEENS_9allocatorIS9_EEE21__construct_node_hashIRKNS_21piecewise_construct_tEJNS_5tupleIJRKS3_EEENSP_IJEEEEEENS4_INS_11__hash_nodeIS9_PvEENS_22__hash_node_destructorINSI_ISW_EEEEEEmOT_DpOT0_",
            "__ZNSt3__112__hash_tableIP10mpv_handleNS_4hashIS2_EENS_8equal_toIS2_EENS_9allocatorIS2_EEE25__emplace_unique_key_argsIS2_JRKS2_EEENS_4pairINS_15__hash_iteratorIPNS_11__hash_nodeIS2_PvEEEEbEERKT_DpOT0_",
            "__ZNSt3__112__hash_tableINS_17__hash_value_typeIP10mpv_handleNS_10unique_ptrINS_18condition_variableENS_14default_deleteIS5_EEEEEENS_22__unordered_map_hasherIS3_S9_NS_4hashIS3_EENS_8equal_toIS3_EELb1EEENS_21__unordered_map_equalIS3_S9_SE_SC_Lb1EEENS_9allocatorIS9_EEE25__emplace_unique_key_argsIS3_JNS_4pairIS3_S8_EEEEENSM_INS_15__hash_iteratorIPNS_11__hash_nodeIS9_PvEEEEbEERKT_DpOT0_",
            "__ZNSt3__112__hash_tableIP10mpv_handleNS_4hashIS2_EENS_8equal_toIS2_EENS_9allocatorIS2_EEE14__erase_uniqueIS2_EEmRKT_",
            "__ZNSt3__112__hash_tableINS_17__hash_value_typeIP10mpv_handleNS_10unique_ptrINS_5mutexENS_14default_deleteIS5_EEEEEENS_22__unordered_map_hasherIS3_S9_NS_4hashIS3_EENS_8equal_toIS3_EELb1EEENS_21__unordered_map_equalIS3_S9_SE_SC_Lb1EEENS_9allocatorIS9_EEE11__do_rehashILb1EEEvm",
            "__ZNSt3__112__hash_tableINS_17__hash_value_typeIP10mpv_handleNS_10unique_ptrINS_18condition_variableENS_14default_deleteIS5_EEEEEENS_22__unordered_map_hasherIS3_S9_NS_4hashIS3_EENS_8equal_toIS3_EELb1EEENS_21__unordered_map_equalIS3_S9_SE_SC_Lb1EEENS_9allocatorIS9_EEE8__rehashILb1EEEvm",
            "__ZNSt3__121__thread_specific_ptrINS_15__thread_structEE11set_pointerEPS1_",
            "__ZNSt3__112__hash_tableINS_17__hash_value_typeIP10mpv_handleNS_10unique_ptrINS_5mutexENS_14default_deleteIS5_EEEEEENS_22__unordered_map_hasherIS3_S9_NS_4hashIS3_EENS_8equal_toIS3_EELb1EEENS_21__unordered_map_equalIS3_S9_SE_SC_Lb1EEENS_9allocatorIS9_EEE25__emplace_unique_key_argsIS3_JNS_4pairIS3_S8_EEEEENSM_INS_15__hash_iteratorIPNS_11__hash_nodeIS9_PvEEEEbEERKT_DpOT0_",
            "__ZNSt3__112__hash_tableINS_17__hash_value_typeIP10mpv_handleNS_10unique_ptrINS_6threadENS_14default_deleteIS5_EEEEEENS_22__unordered_map_hasherIS3_S9_NS_4hashIS3_EENS_8equal_toIS3_EELb1EEENS_21__unordered_map_equalIS3_S9_SE_SC_Lb1EEENS_9allocatorIS9_EEE14__erase_uniqueIS3_EEmRKT_",
            "__ZNSt3__112__hash_tableINS_17__hash_value_typeIP10mpv_handleNS_10unique_ptrINS_5mutexENS_14default_deleteIS5_EEEEEENS_22__unordered_map_hasherIS3_S9_NS_4hashIS3_EENS_8equal_toIS3_EELb1EEENS_21__unordered_map_equalIS3_S9_SE_SC_Lb1EEENS_9allocatorIS9_EEE21__construct_node_hashINS_4pairIS3_S8_EEJEEENS4_INS_11__hash_nodeIS9_PvEENS_22__hash_node_destructorINSI_ISQ_EEEEEEmOT_DpOT0_",
            "__ZNSt3__112__hash_tableINS_17__hash_value_typeIP10mpv_handleNS_10unique_ptrINS_6threadENS_14default_deleteIS5_EEEEEENS_22__unordered_map_hasherIS3_S9_NS_4hashIS3_EENS_8equal_toIS3_EELb1EEENS_21__unordered_map_equalIS3_S9_SE_SC_Lb1EEENS_9allocatorIS9_EEE25__emplace_unique_key_argsIS3_JRKNS_21piecewise_construct_tENS_5tupleIJRKS3_EEENSP_IJEEEEEENS_4pairINS_15__hash_iteratorIPNS_11__hash_nodeIS9_PvEEEEbEERKT_DpOT0_",
            "__ZNSt3__112__hash_tableINS_17__hash_value_typeIP10mpv_handleNS_10unique_ptrINS_18condition_variableENS_14default_deleteIS5_EEEEEENS_22__unordered_map_hasherIS3_S9_NS_4hashIS3_EENS_8equal_toIS3_EELb1EEENS_21__unordered_map_equalIS3_S9_SE_SC_Lb1EEENS_9allocatorIS9_EEE21__construct_node_hashIRKNS_21piecewise_construct_tEJNS_5tupleIJRKS3_EEENSP_IJEEEEEENS4_INS_11__hash_nodeIS9_PvEENS_22__hash_node_destructorINSI_ISW_EEEEEEmOT_DpOT0_",
            "__ZNSt3__112__hash_tableINS_17__hash_value_typeIP10mpv_handleNS_10unique_ptrINS_6threadENS_14default_deleteIS5_EEEEEENS_22__unordered_map_hasherIS3_S9_NS_4hashIS3_EENS_8equal_toIS3_EELb1EEENS_21__unordered_map_equalIS3_S9_SE_SC_Lb1EEENS_9allocatorIS9_EEE21__construct_node_hashIRKNS_21piecewise_construct_tEJNS_5tupleIJRKS3_EEENSP_IJEEEEEENS4_INS_11__hash_nodeIS9_PvEENS_22__hash_node_destructorINSI_ISW_EEEEEEmOT_DpOT0_",
            "__ZNSt3__112__hash_tableINS_17__hash_value_typeIP10mpv_handleNS_10unique_ptrINS_6threadENS_14default_deleteIS5_EEEEEENS_22__unordered_map_hasherIS3_S9_NS_4hashIS3_EENS_8equal_toIS3_EELb1EEENS_21__unordered_map_equalIS3_S9_SE_SC_Lb1EEENS_9allocatorIS9_EEE11__do_rehashILb1EEEvm",
            "__ZNSt3__112__hash_tableIP10mpv_handleNS_4hashIS2_EENS_8equal_toIS2_EENS_9allocatorIS2_EEE8__rehashILb1EEEvm",
            "__ZNSt3__112__hash_tableINS_17__hash_value_typeIP10mpv_handleNS_10unique_ptrINS_5mutexENS_14default_deleteIS5_EEEEEENS_22__unordered_map_hasherIS3_S9_NS_4hashIS3_EENS_8equal_toIS3_EELb1EEENS_21__unordered_map_equalIS3_S9_SE_SC_Lb1EEENS_9allocatorIS9_EEE25__emplace_unique_key_argsIS3_JRKNS_21piecewise_construct_tENS_5tupleIJRKS3_EEENSP_IJEEEEEENS_4pairINS_15__hash_iteratorIPNS_11__hash_nodeIS9_PvEEEEbEERKT_DpOT0_",
            "__ZNSt3__112__hash_tableINS_17__hash_value_typeIP10mpv_handleNS_10unique_ptrINS_5mutexENS_14default_deleteIS5_EEEEEENS_22__unordered_map_hasherIS3_S9_NS_4hashIS3_EENS_8equal_toIS3_EELb1EEENS_21__unordered_map_equalIS3_S9_SE_SC_Lb1EEENS_9allocatorIS9_EEE4findIS3_EENS_15__hash_iteratorIPNS_11__hash_nodeIS9_PvEEEERKT_",
            "__ZNSt3__112__hash_tableINS_17__hash_value_typeIP10mpv_handleNS_10unique_ptrINS_6threadENS_14default_deleteIS5_EEEEEENS_22__unordered_map_hasherIS3_S9_NS_4hashIS3_EENS_8equal_toIS3_EELb1EEENS_21__unordered_map_equalIS3_S9_SE_SC_Lb1EEENS_9allocatorIS9_EEE8__rehashILb1EEEvm",
            "__ZNSt3__112__hash_tableIP10mpv_handleNS_4hashIS2_EENS_8equal_toIS2_EENS_9allocatorIS2_EEE4findIS2_EENS_15__hash_iteratorIPNS_11__hash_nodeIS2_PvEEEERKT_",
            "__ZNSt3__112__hash_tableINS_17__hash_value_typeIP10mpv_handleNS_10unique_ptrINS_18condition_variableENS_14default_deleteIS5_EEEEEENS_22__unordered_map_hasherIS3_S9_NS_4hashIS3_EENS_8equal_toIS3_EELb1EEENS_21__unordered_map_equalIS3_S9_SE_SC_Lb1EEENS_9allocatorIS9_EEE4findIS3_EENS_15__hash_iteratorIPNS_11__hash_nodeIS9_PvEEEERKT_",
            "__ZNSt3__112__hash_tableINS_17__hash_value_typeIP10mpv_handleNS_10unique_ptrINS_18condition_variableENS_14default_deleteIS5_EEEEEENS_22__unordered_map_hasherIS3_S9_NS_4hashIS3_EENS_8equal_toIS3_EELb1EEENS_21__unordered_map_equalIS3_S9_SE_SC_Lb1EEENS_9allocatorIS9_EEE25__emplace_unique_key_argsIS3_JRKNS_21piecewise_construct_tENS_5tupleIJRKS3_EEENSP_IJEEEEEENS_4pairINS_15__hash_iteratorIPNS_11__hash_nodeIS9_PvEEEEbEERKT_DpOT0_",
            "__ZNSt3__112__hash_tableINS_17__hash_value_typeIP10mpv_handleNS_10unique_ptrINS_18condition_variableENS_14default_deleteIS5_EEEEEENS_22__unordered_map_hasherIS3_S9_NS_4hashIS3_EENS_8equal_toIS3_EELb1EEENS_21__unordered_map_equalIS3_S9_SE_SC_Lb1EEENS_9allocatorIS9_EEE14__erase_uniqueIS3_EEmRKT_",
            "__ZNSt3__112__hash_tableINS_17__hash_value_typeIP10mpv_handleNS_10unique_ptrINS_5mutexENS_14default_deleteIS5_EEEEEENS_22__unordered_map_hasherIS3_S9_NS_4hashIS3_EENS_8equal_toIS3_EELb1EEENS_21__unordered_map_equalIS3_S9_SE_SC_Lb1EEENS_9allocatorIS9_EEE14__erase_uniqueIS3_EEmRKT_",
            "__ZNSt3__112__hash_tableINS_17__hash_value_typeIP10mpv_handleNS_10unique_ptrINS_5mutexENS_14default_deleteIS5_EEEEEENS_22__unordered_map_hasherIS3_S9_NS_4hashIS3_EENS_8equal_toIS3_EELb1EEENS_21__unordered_map_equalIS3_S9_SE_SC_Lb1EEENS_9allocatorIS9_EEE8__rehashILb1EEEvm",
            "__ZNSt3__112__hash_tableIP10mpv_handleNS_4hashIS2_EENS_8equal_toIS2_EENS_9allocatorIS2_EEE11__do_rehashILb1EEEvm",
            "__ZNSt3__112__hash_tableIP10mpv_handleNS_4hashIS2_EENS_8equal_toIS2_EENS_9allocatorIS2_EEE21__construct_node_hashIRKS2_JEEENS_10unique_ptrINS_11__hash_nodeIS2_PvEENS_22__hash_node_destructorINS7_ISG_EEEEEEmOT_DpOT0_",
            "__ZNSt3__112__hash_tableINS_17__hash_value_typeIP10mpv_handleNS_10unique_ptrINS_18condition_variableENS_14default_deleteIS5_EEEEEENS_22__unordered_map_hasherIS3_S9_NS_4hashIS3_EENS_8equal_toIS3_EELb1EEENS_21__unordered_map_equalIS3_S9_SE_SC_Lb1EEENS_9allocatorIS9_EEE11__do_rehashILb1EEEvm"
          ]
        }
      }
    ],
    "flags": [
      {
        "attributes": [
          "not_app_extension_safe"
        ]
      }
    ],
    "install_names": [
      {
        "name": "@rpath/media_kit_native_event_loop.framework/Versions/A/media_kit_native_event_loop"
      }
    ],
    "target_info": [
      {
        "min_deployment": "11",
        "target": "arm64-macos"
      }
    ]
  },
  "tapi_tbd_version": 5
}
